; Function Attrs: nounwind uwtable
define dso_local void @logicalrep_worker_stop(i32 noundef %0, i32 noundef %1) local_unnamed_addr #2 {
  %3 = load ptr, ptr @MainLWLockArray, align 8
  %4 = getelementptr inbounds nuw i8, ptr %3, i64 5504
  %5 = tail call zeroext i1 @LWLockAcquire(ptr noundef nonnull %4, i32 noundef 1) #13
  %6 = load i32, ptr @max_logical_replication_workers, align 4
  %7 = icmp sgt i32 %6, 0
  br i1 %7, label %.lr.ph.i, label %logicalrep_worker_find.exit.thread

.lr.ph.i:                                         ; preds = %2
  %8 = load ptr, ptr @LogicalRepCtx, align 8
  %9 = getelementptr inbounds nuw i8, ptr %8, i64 16
  %wide.trip.count34.i = zext nneg i32 %6 to i64
  br label %.lr.ph.split.i

.lr.ph.split.i:                                   ; preds = %25, %.lr.ph.i
  %indvars.iv.i = phi i64 [ %indvars.iv.next.i, %25 ], [ 0, %.lr.ph.i ]
  %10 = getelementptr inbounds nuw [0 x %struct.LogicalRepWorker], ptr %9, i64 0, i64 %indvars.iv.i
  %11 = getelementptr inbounds nuw i8, ptr %10, i64 16
  %12 = load i8, ptr %11, align 8, !range !4, !noundef !5
  %13 = trunc nuw i8 %12 to i1
  br i1 %13, label %14, label %25

14:                                               ; preds = %.lr.ph.split.i
  %15 = load i32, ptr %10, align 8
  %16 = icmp eq i32 %15, 3
  br i1 %16, label %25, label %17

17:                                               ; preds = %14
  %18 = getelementptr inbounds nuw i8, ptr %10, i64 40
  %19 = load i32, ptr %18, align 8
  %20 = icmp eq i32 %19, %0
  br i1 %20, label %21, label %25

21:                                               ; preds = %17
  %22 = getelementptr inbounds nuw i8, ptr %10, i64 44
  %23 = load i32, ptr %22, align 4
  %24 = icmp eq i32 %23, %1
  br i1 %24, label %logicalrep_worker_find.exit, label %25

25:                                               ; preds = %21, %17, %14, %.lr.ph.split.i
  %indvars.iv.next.i = add nuw nsw i64 %indvars.iv.i, 1
  %exitcond.not.i = icmp eq i64 %indvars.iv.next.i, %wide.trip.count34.i
  br i1 %exitcond.not.i, label %logicalrep_worker_find.exit.thread, label %.lr.ph.split.i, !llvm.loop !6

logicalrep_worker_find.exit:                      ; preds = %21
  tail call fastcc void @logicalrep_worker_stop_internal(ptr noundef nonnull %10, i32 noundef 15)
  br label %logicalrep_worker_find.exit.thread

logicalrep_worker_find.exit.thread:               ; preds = %25, %2, %logicalrep_worker_find.exit
  %26 = load ptr, ptr @MainLWLockArray, align 8
  %27 = getelementptr inbounds nuw i8, ptr %26, i64 5504
  tail call void @LWLockRelease(ptr noundef nonnull %27) #13
  ret void
}